target datalayout = "e-m:e-p270:32:32-p271:32:32-p272:64:64-i64:64-i128:128-f80:128-n8:16:32:64-S128"
target triple = "x86_64-pc-linux-gnu"

%struct.PACKET = type { ptr, i64 }

@smbuf = internal global [256 x i8] zeroinitializer, align 16
@.str.25 = private unnamed_addr constant [29 x i8] c"../openssl/test/packettest.c\00", align 1
@.str.27 = private unnamed_addr constant [23 x i8] c"PACKET_remaining(&pkt)\00", align 1
@.str.30 = private unnamed_addr constant [8 x i8] c"BUF_LEN\00", align 1
@.str.33 = private unnamed_addr constant [24 x i8] c"PACKET_forward(&pkt, 1)\00", align 1
@.str.34 = private unnamed_addr constant [38 x i8] c"PACKET_buf_init(&pkt, smbuf, BUF_LEN)\00", align 1
@.str.35 = private unnamed_addr constant [34 x i8] c"PACKET_forward(&pkt, BUF_LEN - 1)\00", align 1
@.str.37 = private unnamed_addr constant [17 x i8] c"PACKET_end(&pkt)\00", align 1
@.str.38 = private unnamed_addr constant [16 x i8] c"smbuf + BUF_LEN\00", align 1

; Function Attrs: inlinehint nounwind uwtable
define internal void @packet_forward(ptr noundef %0, i64 noundef %1) #4 {
  %3 = alloca ptr, align 8
  %4 = alloca i64, align 8
  store ptr %0, ptr %3, align 8, !tbaa !33
  store i64 %1, ptr %4, align 8, !tbaa !11
  %5 = load i64, ptr %4, align 8, !tbaa !11
  %6 = load ptr, ptr %3, align 8, !tbaa !33
  %7 = getelementptr inbounds nuw %struct.PACKET, ptr %6, i32 0, i32 0
  %8 = load ptr, ptr %7, align 8, !tbaa !29
  %9 = getelementptr inbounds nuw i8, ptr %8, i64 %5
  store ptr %9, ptr %7, align 8, !tbaa !29
  %10 = load i64, ptr %4, align 8, !tbaa !11
  %11 = load ptr, ptr %3, align 8, !tbaa !33
  %12 = getelementptr inbounds nuw %struct.PACKET, ptr %11, i32 0, i32 1
  %13 = load i64, ptr %12, align 8, !tbaa !31
  %14 = sub i64 %13, %10
  store i64 %14, ptr %12, align 8, !tbaa !31
  ret void
}

; Function Attrs: inlinehint nounwind uwtable
define internal i32 @PACKET_forward(ptr noundef %0, i64 noundef %1) #4 {
  %3 = alloca i32, align 4
  %4 = alloca ptr, align 8
  %5 = alloca i64, align 8
  store ptr %0, ptr %4, align 8, !tbaa !33
  store i64 %1, ptr %5, align 8, !tbaa !11
  %6 = load ptr, ptr %4, align 8, !tbaa !33
  %7 = call i64 @PACKET_remaining(ptr noundef %6)
  %8 = load i64, ptr %5, align 8, !tbaa !11
  %9 = icmp ult i64 %7, %8
  br i1 %9, label %10, label %11

10:                                               ; preds = %2
  store i32 0, ptr %3, align 4
  br label %14

11:                                               ; preds = %2
  %12 = load ptr, ptr %4, align 8, !tbaa !33
  %13 = load i64, ptr %5, align 8, !tbaa !11
  call void @packet_forward(ptr noundef %12, i64 noundef %13)
  store i32 1, ptr %3, align 4
  br label %14

14:                                               ; preds = %11, %10
  %15 = load i32, ptr %3, align 4
  ret i32 %15
}

; Function Attrs: inlinehint nounwind uwtable
define internal ptr @PACKET_end(ptr noundef %0) #4 {
  %2 = alloca ptr, align 8
  store ptr %0, ptr %2, align 8, !tbaa !33
  %3 = load ptr, ptr %2, align 8, !tbaa !33
  %4 = getelementptr inbounds nuw %struct.PACKET, ptr %3, i32 0, i32 0
  %5 = load ptr, ptr %4, align 8, !tbaa !29
  %6 = load ptr, ptr %2, align 8, !tbaa !33
  %7 = getelementptr inbounds nuw %struct.PACKET, ptr %6, i32 0, i32 1
  %8 = load i64, ptr %7, align 8, !tbaa !31
  %9 = getelementptr inbounds nuw i8, ptr %5, i64 %8
  ret ptr %9
}

; Function Attrs: inlinehint nounwind uwtable
define internal i64 @PACKET_remaining(ptr noundef %0) #4 {
  %2 = alloca ptr, align 8
  store ptr %0, ptr %2, align 8, !tbaa !33
  %3 = load ptr, ptr %2, align 8, !tbaa !33
  %4 = getelementptr inbounds nuw %struct.PACKET, ptr %3, i32 0, i32 1
  %5 = load i64, ptr %4, align 8, !tbaa !31
  ret i64 %5
}

; Function Attrs: inlinehint nounwind uwtable
define internal i32 @PACKET_buf_init(ptr noundef %0, ptr noundef %1, i64 noundef %2) #4 {
  %4 = alloca i32, align 4
  %5 = alloca ptr, align 8
  %6 = alloca ptr, align 8
  %7 = alloca i64, align 8
  store ptr %0, ptr %5, align 8, !tbaa !33
  store ptr %1, ptr %6, align 8, !tbaa !13
  store i64 %2, ptr %7, align 8, !tbaa !11
  %8 = load i64, ptr %7, align 8, !tbaa !11
  %9 = icmp ugt i64 %8, 9223372036854775807
  br i1 %9, label %10, label %11

10:                                               ; preds = %3
  store i32 0, ptr %4, align 4
  br label %18

11:                                               ; preds = %3
  %12 = load ptr, ptr %6, align 8, !tbaa !13
  %13 = load ptr, ptr %5, align 8, !tbaa !33
  %14 = getelementptr inbounds nuw %struct.PACKET, ptr %13, i32 0, i32 0
  store ptr %12, ptr %14, align 8, !tbaa !29
  %15 = load i64, ptr %7, align 8, !tbaa !11
  %16 = load ptr, ptr %5, align 8, !tbaa !33
  %17 = getelementptr inbounds nuw %struct.PACKET, ptr %16, i32 0, i32 1
  store i64 %15, ptr %17, align 8, !tbaa !31
  store i32 1, ptr %4, align 4
  br label %18

18:                                               ; preds = %11, %10
  %19 = load i32, ptr %4, align 4
  ret i32 %19
}

; Function Attrs: nounwind uwtable
define internal i32 @test_PACKET_end() #0 {
  %1 = alloca i32, align 4
  %2 = alloca %struct.PACKET, align 8
  %3 = alloca i32, align 4
  call void @llvm.lifetime.start.p0(i64 16, ptr %2) #7
  %4 = call i32 @PACKET_buf_init(ptr noundef %2, ptr noundef @smbuf, i64 noundef 255)
  %5 = icmp ne i32 %4, 0
  %6 = zext i1 %5 to i32
  %7 = call i32 @test_true(ptr noundef @.str.25, i32 noundef 36, ptr noundef @.str.34, i32 noundef %6)
  %8 = icmp ne i32 %7, 0
  br i1 %8, label %9, label %37

9:                                                ; preds = %0
  %10 = call i64 @PACKET_remaining(ptr noundef %2)
  %11 = call i32 @test_size_t_eq(ptr noundef @.str.25, i32 noundef 37, ptr noundef @.str.27, ptr noundef @.str.30, i64 noundef %10, i64 noundef 255)
  %12 = icmp ne i32 %11, 0
  br i1 %12, label %13, label %37

13:                                               ; preds = %9
  %14 = call ptr @PACKET_end(ptr noundef %2)
  %15 = call i32 @test_ptr_eq(ptr noundef @.str.25, i32 noundef 38, ptr noundef @.str.37, ptr noundef @.str.38, ptr noundef %14, ptr noundef getelementptr inbounds (i8, ptr @smbuf, i64 255))
  %16 = icmp ne i32 %15, 0
  br i1 %16, label %17, label %37

17:                                               ; preds = %13
  %18 = call i32 @PACKET_forward(ptr noundef %2, i64 noundef 254)
  %19 = icmp ne i32 %18, 0
  %20 = zext i1 %19 to i32
  %21 = call i32 @test_true(ptr noundef @.str.25, i32 noundef 39, ptr noundef @.str.35, i32 noundef %20)
  %22 = icmp ne i32 %21, 0
  br i1 %22, label %23, label %37

23:                                               ; preds = %17
  %24 = call ptr @PACKET_end(ptr noundef %2)
  %25 = call i32 @test_ptr_eq(ptr noundef @.str.25, i32 noundef 40, ptr noundef @.str.37, ptr noundef @.str.38, ptr noundef %24, ptr noundef getelementptr inbounds (i8, ptr @smbuf, i64 255))
  %26 = icmp ne i32 %25, 0
  br i1 %26, label %27, label %37

27:                                               ; preds = %23
  %28 = call i32 @PACKET_forward(ptr noundef %2, i64 noundef 1)
  %29 = icmp ne i32 %28, 0
  %30 = zext i1 %29 to i32
  %31 = call i32 @test_true(ptr noundef @.str.25, i32 noundef 41, ptr noundef @.str.33, i32 noundef %30)
  %32 = icmp ne i32 %31, 0
  br i1 %32, label %33, label %37

33:                                               ; preds = %27
  %34 = call ptr @PACKET_end(ptr noundef %2)
  %35 = call i32 @test_ptr_eq(ptr noundef @.str.25, i32 noundef 42, ptr noundef @.str.37, ptr noundef @.str.38, ptr noundef %34, ptr noundef getelementptr inbounds (i8, ptr @smbuf, i64 255))
  %36 = icmp ne i32 %35, 0
  br i1 %36, label %38, label %37

37:                                               ; preds = %33, %27, %23, %17, %13, %9, %0
  store i32 0, ptr %1, align 4
  store i32 1, ptr %3, align 4
  br label %39

38:                                               ; preds = %33
  store i32 1, ptr %1, align 4
  store i32 1, ptr %3, align 4
  br label %39

39:                                               ; preds = %38, %37
  call void @llvm.lifetime.end.p0(i64 16, ptr %2) #7
  %40 = load i32, ptr %1, align 4
  ret i32 %40
}