; Function Attrs: nounwind uwtable
define internal range(i32 0, 2) i32 @test_PACKET_end() #0 {
  %1 = tail call i32 @test_true(ptr noundef nonnull @.str.25, i32 noundef 36, ptr noundef nonnull @.str.34, i32 noundef 1) #6
  %.not = icmp eq i32 %1, 0
  br i1 %.not, label %12, label %2

2:                                                ; preds = %0
  %3 = tail call i32 @test_size_t_eq(ptr noundef nonnull @.str.25, i32 noundef 37, ptr noundef nonnull @.str.27, ptr noundef nonnull @.str.30, i64 noundef 255, i64 noundef 255) #6
  %.not1 = icmp eq i32 %3, 0
  br i1 %.not1, label %12, label %4

4:                                                ; preds = %2
  %5 = tail call i32 @test_ptr_eq(ptr noundef nonnull @.str.25, i32 noundef 38, ptr noundef nonnull @.str.37, ptr noundef nonnull @.str.38, ptr noundef nonnull getelementptr inbounds nuw (i8, ptr @smbuf, i64 255), ptr noundef nonnull getelementptr inbounds nuw (i8, ptr @smbuf, i64 255)) #6
  %.not2 = icmp eq i32 %5, 0
  br i1 %.not2, label %12, label %PACKET_forward.exit

PACKET_forward.exit:                              ; preds = %4
  %6 = tail call i32 @test_true(ptr noundef nonnull @.str.25, i32 noundef 39, ptr noundef nonnull @.str.35, i32 noundef 1) #6
  %.not3 = icmp eq i32 %6, 0
  br i1 %.not3, label %12, label %7

7:                                                ; preds = %PACKET_forward.exit
  %8 = tail call i32 @test_ptr_eq(ptr noundef nonnull @.str.25, i32 noundef 40, ptr noundef nonnull @.str.37, ptr noundef nonnull @.str.38, ptr noundef nonnull getelementptr inbounds nuw (i8, ptr @smbuf, i64 255), ptr noundef nonnull getelementptr inbounds nuw (i8, ptr @smbuf, i64 255)) #6
  %.not4 = icmp eq i32 %8, 0
  br i1 %.not4, label %12, label %PACKET_forward.exit15

PACKET_forward.exit15:                            ; preds = %7
  %9 = tail call i32 @test_true(ptr noundef nonnull @.str.25, i32 noundef 41, ptr noundef nonnull @.str.33, i32 noundef 1) #6
  %.not5 = icmp eq i32 %9, 0
  br i1 %.not5, label %12, label %10

10:                                               ; preds = %PACKET_forward.exit15
  %11 = tail call i32 @test_ptr_eq(ptr noundef nonnull @.str.25, i32 noundef 42, ptr noundef nonnull @.str.37, ptr noundef nonnull @.str.38, ptr noundef nonnull getelementptr inbounds nuw (i8, ptr @smbuf, i64 255), ptr noundef nonnull getelementptr inbounds nuw (i8, ptr @smbuf, i64 255)) #6
  %.not6 = icmp ne i32 %11, 0
  %spec.select = zext i1 %.not6 to i32
  br label %12

12:                                               ; preds = %10, %0, %2, %4, %PACKET_forward.exit, %7, %PACKET_forward.exit15
  %.0 = phi i32 [ 0, %PACKET_forward.exit15 ], [ 0, %7 ], [ 0, %PACKET_forward.exit ], [ 0, %4 ], [ 0, %2 ], [ 0, %0 ], [ %spec.select, %10 ]
  ret i32 %.0
}